; Function Attrs: mustprogress nofree norecurse nosync nounwind memory(readwrite, inaccessiblemem: none) uwtable
define internal void @_ZNK2cv3hal12cpu_baseline12_GLOBAL__N_119RGB8toYUV422InvokerILi2ELi0ELi0ELi3EEclERKNS_5RangeE(ptr nocapture noundef nonnull readonly align 8 dereferenceable(44) %0, ptr nocapture noundef nonnull readonly align 4 dereferenceable(8) %1) unnamed_addr #5 align 2 {
  %3 = load i32, ptr %1, align 4
  %4 = getelementptr inbounds i8, ptr %1, i64 4
  %5 = load i32, ptr %4, align 4
  %6 = getelementptr inbounds i8, ptr %0, i64 32
  %7 = icmp slt i32 %3, %5
  br i1 %7, label %.lr.ph44, label %._crit_edge45

.lr.ph44:                                         ; preds = %2
  %8 = getelementptr inbounds i8, ptr %0, i64 24
  %9 = load ptr, ptr %8, align 8
  %10 = load i64, ptr %6, align 8
  %11 = sext i32 %3 to i64
  %12 = mul i64 %10, %11
  %13 = getelementptr inbounds i8, ptr %9, i64 %12
  %14 = getelementptr inbounds i8, ptr %0, i64 8
  %15 = getelementptr inbounds i8, ptr %0, i64 16
  %16 = getelementptr inbounds i8, ptr %0, i64 40
  %wide.trip.count = sext i32 %5 to i64
  %.pre = load i32, ptr %16, align 8
  br label %17

17:                                               ; preds = %.lr.ph44, %._crit_edge
  %18 = phi i64 [ %10, %.lr.ph44 ], [ %88, %._crit_edge ]
  %19 = phi i32 [ %.pre, %.lr.ph44 ], [ %89, %._crit_edge ]
  %indvars.iv47 = phi i64 [ %11, %.lr.ph44 ], [ %indvars.iv.next48, %._crit_edge ]
  %.041 = phi ptr [ %13, %.lr.ph44 ], [ %90, %._crit_edge ]
  %.03342 = getelementptr inbounds i8, ptr %.041, i64 3
  %20 = icmp sgt i32 %19, 0
  br i1 %20, label %.lr.ph.preheader, label %._crit_edge

.lr.ph.preheader:                                 ; preds = %17
  %21 = load ptr, ptr %14, align 8
  %22 = load i64, ptr %15, align 8
  %23 = mul i64 %22, %indvars.iv47
  %24 = getelementptr inbounds i8, ptr %21, i64 %23
  br label %.lr.ph

.lr.ph:                                           ; preds = %.lr.ph.preheader, %.lr.ph
  %indvars.iv = phi i64 [ 0, %.lr.ph.preheader ], [ %indvars.iv.next, %.lr.ph ]
  %.03538 = phi ptr [ %24, %.lr.ph.preheader ], [ %83, %.lr.ph ]
  %25 = getelementptr inbounds i8, ptr %.041, i64 %indvars.iv
  %26 = load i8, ptr %25, align 1
  %27 = or disjoint i64 %indvars.iv, 1
  %28 = getelementptr inbounds i8, ptr %.041, i64 %27
  %29 = load i8, ptr %28, align 1
  %30 = add nuw nsw i64 %indvars.iv, 2
  %31 = getelementptr inbounds i8, ptr %.041, i64 %30
  %32 = load i8, ptr %31, align 1
  %33 = getelementptr inbounds i8, ptr %.03342, i64 %indvars.iv
  %34 = load i8, ptr %33, align 1
  %35 = getelementptr inbounds i8, ptr %.03342, i64 %27
  %36 = load i8, ptr %35, align 1
  %37 = getelementptr inbounds i8, ptr %.03342, i64 %30
  %38 = load i8, ptr %37, align 1
  %39 = getelementptr inbounds i8, ptr %.03538, i64 1
  %40 = getelementptr inbounds i8, ptr %.03538, i64 3
  %41 = getelementptr inbounds i8, ptr %.03538, i64 2
  %42 = zext i8 %26 to i32
  %43 = mul nuw nsw i32 %42, 4211
  %44 = zext i8 %29 to i32
  %45 = mul nuw nsw i32 %44, 8258
  %46 = zext i8 %32 to i32
  %47 = mul nuw nsw i32 %46, 1606
  %48 = add nuw nsw i32 %43, 270336
  %49 = add nuw nsw i32 %48, %45
  %50 = add nuw nsw i32 %49, %47
  %51 = lshr i32 %50, 14
  %52 = trunc nuw i32 %51 to i8
  store i8 %52, ptr %.03538, align 1
  %53 = zext i8 %34 to i32
  %54 = mul nuw nsw i32 %53, 4211
  %55 = zext i8 %36 to i32
  %56 = mul nuw nsw i32 %55, 8258
  %57 = zext i8 %38 to i32
  %58 = mul nuw nsw i32 %57, 1606
  %59 = add nuw nsw i32 %54, 270336
  %60 = add nuw nsw i32 %59, %56
  %61 = add nuw nsw i32 %60, %58
  %62 = lshr i32 %61, 14
  %63 = trunc nuw i32 %62 to i8
  store i8 %63, ptr %41, align 1
  %64 = add nuw nsw i32 %53, %42
  %65 = add nuw nsw i32 %55, %44
  %66 = add nuw nsw i32 %57, %46
  %67 = mul nuw nsw i32 %64, 4193092
  %68 = mul nuw nsw i32 %65, 4191920
  %69 = mul nuw nsw i32 %66, 3596
  %70 = add nuw nsw i32 %67, 2105344
  %71 = add nuw i32 %70, %68
  %72 = add nuw i32 %71, %69
  %73 = lshr i32 %72, 14
  %74 = trunc i32 %73 to i8
  store i8 %74, ptr %39, align 1
  %75 = mul nuw nsw i32 %64, 3596
  %76 = mul nuw nsw i32 %65, 4191289
  %77 = mul nuw nsw i32 %66, 4193722
  %78 = add nuw nsw i32 %75, 2105344
  %79 = add nuw nsw i32 %78, %76
  %80 = add nuw i32 %79, %77
  %81 = lshr i32 %80, 14
  %82 = trunc i32 %81 to i8
  store i8 %82, ptr %40, align 1
  %indvars.iv.next = add nuw nsw i64 %indvars.iv, 6
  %83 = getelementptr inbounds i8, ptr %.03538, i64 4
  %84 = load i32, ptr %16, align 8
  %85 = mul nsw i32 %84, 3
  %86 = sext i32 %85 to i64
  %87 = icmp slt i64 %indvars.iv.next, %86
  br i1 %87, label %.lr.ph, label %._crit_edge.loopexit, !llvm.loop !15

._crit_edge.loopexit:                             ; preds = %.lr.ph
  %.pre50 = load i64, ptr %6, align 8
  br label %._crit_edge

._crit_edge:                                      ; preds = %._crit_edge.loopexit, %17
  %88 = phi i64 [ %.pre50, %._crit_edge.loopexit ], [ %18, %17 ]
  %89 = phi i32 [ %84, %._crit_edge.loopexit ], [ %19, %17 ]
  %indvars.iv.next48 = add nsw i64 %indvars.iv47, 1
  %90 = getelementptr inbounds i8, ptr %.041, i64 %88
  %exitcond.not = icmp eq i64 %indvars.iv.next48, %wide.trip.count
  br i1 %exitcond.not, label %._crit_edge45, label %17, !llvm.loop !16

._crit_edge45:                                    ; preds = %._crit_edge, %2
  ret void
}